; Function Attrs: mustprogress uwtable
define internal void @_ZL21DOCTEST_ANON_FUNC_112v() #4 personality ptr @__gxx_personality_v0 {
  %1 = alloca %struct.lua_CompileOptions, align 16
  %2 = alloca %"class.std::unique_ptr", align 8
  %3 = getelementptr inbounds i8, ptr %1, i64 16
  call void @llvm.memset.p0.i64(ptr noundef nonnull align 16 dereferenceable(48) %3, i8 0, i64 40, i1 false), !alias.scope !113
  %4 = getelementptr inbounds i8, ptr %1, i64 24
  store ptr @.str.53, ptr %4, align 8, !alias.scope !113
  %5 = getelementptr inbounds i8, ptr %1, i64 32
  store ptr @.str.53, ptr %5, align 16, !alias.scope !113
  store <4 x i32> <i32 1, i32 1, i32 1, i32 2>, ptr %1, align 16
  call fastcc void @_ZL14runConformancePKcPFvP9lua_StateES4_S2_P18lua_CompileOptionsbPN4Luau7CodeGen18CompilationOptionsE(ptr dead_on_unwind noalias nonnull writable align 8 %2, ptr noundef nonnull @.str.431, ptr noundef nonnull @"_ZZL21DOCTEST_ANON_FUNC_112vEN3$_08__invokeEP9lua_State", ptr noundef null, ptr noundef null, ptr noundef nonnull %1, i1 noundef zeroext false, ptr noundef null)
  %6 = getelementptr inbounds i8, ptr %2, i64 8
  %7 = load ptr, ptr %6, align 8
  %.not.i = icmp eq ptr %7, null
  br i1 %.not.i, label %_ZNSt10unique_ptrI9lua_StatePFvPS0_EED2Ev.exit, label %8

8:                                                ; preds = %0
  %9 = load ptr, ptr %2, align 8
  invoke void %9(ptr noundef nonnull %7)
          to label %_ZNSt10unique_ptrI9lua_StatePFvPS0_EED2Ev.exit unwind label %10

10:                                               ; preds = %8
  %11 = landingpad { ptr, i32 }
          catch ptr null
  %12 = extractvalue { ptr, i32 } %11, 0
  call void @__clang_call_terminate(ptr %12) #36
  unreachable

_ZNSt10unique_ptrI9lua_StatePFvPS0_EED2Ev.exit:   ; preds = %0, %8
  ret void
}